target datalayout = "e-m:e-p270:32:32-p271:32:32-p272:64:64-i64:64-i128:128-f80:128-n8:16:32:64-S128"
target triple = "x86_64-unknown-linux-gnu"

%"class.cvc5::internal::NodeTemplate" = type { ptr }
%"class.std::__cxx11::basic_string" = type { %"struct.std::__cxx11::basic_string<char>::_Alloc_hider", i64, %union.anon }
%"struct.std::__cxx11::basic_string<char>::_Alloc_hider" = type { ptr }
%union.anon = type { i64, [8 x i8] }
%"class.std::chrono::time_point" = type { %"class.std::chrono::duration" }
%"class.std::chrono::duration" = type { i64 }
%"class.std::unique_ptr" = type { %"struct.std::__uniq_ptr_data" }
%"struct.std::__uniq_ptr_data" = type { %"class.std::__uniq_ptr_impl" }
%"class.std::__uniq_ptr_impl" = type { %"class.std::tuple" }
%"class.std::tuple" = type { %"struct.std::_Tuple_impl" }
%"struct.std::_Tuple_impl" = type { %"struct.std::_Head_base.1" }
%"struct.std::_Head_base.1" = type { ptr }
%"class.cvc5::internal::theory::PartitionGenerator" = type { %"class.cvc5::internal::theory::TheoryEngineModule", %"class.std::chrono::time_point", %"class.std::chrono::time_point", ptr, %"class.std::unique_ptr", i64, i64, i64, i64, %"class.std::vector", %"class.std::vector", %"class.std::vector", i64, i8, i8, %"class.std::unordered_map", %"class.std::set", %"class.std::set" }
%"class.cvc5::internal::theory::TheoryEngineModule" = type { %"class.cvc5::internal::EnvObj", %"class.cvc5::internal::theory::OutputChannel", %"class.std::__cxx11::basic_string" }
%"class.cvc5::internal::EnvObj" = type { ptr, ptr }
%"class.cvc5::internal::theory::OutputChannel" = type <{ ptr, ptr, %"class.std::__cxx11::basic_string", %"class.cvc5::internal::theory::OutputChannel::Statistics", i32, [4 x i8] }>
%"class.cvc5::internal::theory::OutputChannel::Statistics" = type { %"class.cvc5::internal::IntStat", %"class.cvc5::internal::IntStat", %"class.cvc5::internal::IntStat", %"class.cvc5::internal::IntStat", %"class.cvc5::internal::IntStat", %"class.cvc5::internal::IntStat" }
%"class.cvc5::internal::IntStat" = type { %"class.cvc5::internal::ValueStat" }
%"class.cvc5::internal::ValueStat" = type { ptr }
%"class.std::vector" = type { %"struct.std::_Vector_base" }
%"struct.std::_Vector_base" = type { %"struct.std::_Vector_base<cvc5::internal::NodeTemplate<true>, std::allocator<cvc5::internal::NodeTemplate<true>>>::_Vector_impl" }
%"struct.std::_Vector_base<cvc5::internal::NodeTemplate<true>, std::allocator<cvc5::internal::NodeTemplate<true>>>::_Vector_impl" = type { %"struct.std::_Vector_base<cvc5::internal::NodeTemplate<true>, std::allocator<cvc5::internal::NodeTemplate<true>>>::_Vector_impl_data" }
%"struct.std::_Vector_base<cvc5::internal::NodeTemplate<true>, std::allocator<cvc5::internal::NodeTemplate<true>>>::_Vector_impl_data" = type { ptr, ptr, ptr }
%"class.std::unordered_map" = type { %"class.std::_Hashtable" }
%"class.std::_Hashtable" = type { ptr, i64, %"struct.std::__detail::_Hash_node_base", i64, %"struct.std::__detail::_Prime_rehash_policy", ptr }
%"struct.std::__detail::_Hash_node_base" = type { ptr }
%"struct.std::__detail::_Prime_rehash_policy" = type { float, i64 }
%"class.std::set" = type { %"class.std::_Rb_tree" }
%"class.std::_Rb_tree" = type { %"struct.std::_Rb_tree<cvc5::internal::NodeTemplate<true>, cvc5::internal::NodeTemplate<true>, std::_Identity<cvc5::internal::NodeTemplate<true>>, std::less<cvc5::internal::NodeTemplate<true>>>::_Rb_tree_impl" }
%"struct.std::_Rb_tree<cvc5::internal::NodeTemplate<true>, cvc5::internal::NodeTemplate<true>, std::_Identity<cvc5::internal::NodeTemplate<true>>, std::less<cvc5::internal::NodeTemplate<true>>>::_Rb_tree_impl" = type { %"struct.std::_Rb_tree_key_compare", %"struct.std::_Rb_tree_header" }
%"struct.std::_Rb_tree_key_compare" = type { %"struct.std::less" }
%"struct.std::less" = type { i8 }
%"struct.std::_Rb_tree_header" = type { %"struct.std::_Rb_tree_node_base", i64 }
%"struct.std::_Rb_tree_node_base" = type { i32, ptr, ptr, ptr }
%"class.cvc5::internal::Options" = type { %"class.std::unique_ptr.65", %"class.std::unique_ptr.73", %"class.std::unique_ptr.81", %"class.std::unique_ptr.89", %"class.std::unique_ptr.97", %"class.std::unique_ptr.105", %"class.std::unique_ptr.113", %"class.std::unique_ptr.121", %"class.std::unique_ptr.129", %"class.std::unique_ptr.137", %"class.std::unique_ptr.145", %"class.std::unique_ptr.153", %"class.std::unique_ptr.161", %"class.std::unique_ptr.169", %"class.std::unique_ptr.177", %"class.std::unique_ptr.185", %"class.std::unique_ptr.193", %"class.std::unique_ptr.201", %"class.std::unique_ptr.209", %"class.std::unique_ptr.217", %"class.std::unique_ptr.225", %"class.std::unique_ptr.233", %"class.std::unique_ptr.241", %"class.std::unique_ptr.249", ptr, ptr, ptr, ptr, ptr, ptr, ptr, ptr, ptr, ptr, ptr, ptr, ptr, ptr, ptr, ptr, ptr, ptr, ptr, ptr, ptr, ptr, ptr, ptr, %"class.std::unique_ptr.257" }
%"class.std::unique_ptr.65" = type { %"struct.std::__uniq_ptr_data.66" }
%"struct.std::__uniq_ptr_data.66" = type { %"class.std::__uniq_ptr_impl.67" }
%"class.std::__uniq_ptr_impl.67" = type { %"class.std::tuple.68" }
%"class.std::tuple.68" = type { %"struct.std::_Tuple_impl.69" }
%"struct.std::_Tuple_impl.69" = type { %"struct.std::_Head_base.72" }
%"struct.std::_Head_base.72" = type { ptr }
%"class.std::unique_ptr.73" = type { %"struct.std::__uniq_ptr_data.74" }
%"struct.std::__uniq_ptr_data.74" = type { %"class.std::__uniq_ptr_impl.75" }
%"class.std::__uniq_ptr_impl.75" = type { %"class.std::tuple.76" }
%"class.std::tuple.76" = type { %"struct.std::_Tuple_impl.77" }
%"struct.std::_Tuple_impl.77" = type { %"struct.std::_Head_base.80" }
%"struct.std::_Head_base.80" = type { ptr }
%"class.std::unique_ptr.81" = type { %"struct.std::__uniq_ptr_data.82" }
%"struct.std::__uniq_ptr_data.82" = type { %"class.std::__uniq_ptr_impl.83" }
%"class.std::__uniq_ptr_impl.83" = type { %"class.std::tuple.84" }
%"class.std::tuple.84" = type { %"struct.std::_Tuple_impl.85" }
%"struct.std::_Tuple_impl.85" = type { %"struct.std::_Head_base.88" }
%"struct.std::_Head_base.88" = type { ptr }
%"class.std::unique_ptr.89" = type { %"struct.std::__uniq_ptr_data.90" }
%"struct.std::__uniq_ptr_data.90" = type { %"class.std::__uniq_ptr_impl.91" }
%"class.std::__uniq_ptr_impl.91" = type { %"class.std::tuple.92" }
%"class.std::tuple.92" = type { %"struct.std::_Tuple_impl.93" }
%"struct.std::_Tuple_impl.93" = type { %"struct.std::_Head_base.96" }
%"struct.std::_Head_base.96" = type { ptr }
%"class.std::unique_ptr.97" = type { %"struct.std::__uniq_ptr_data.98" }
%"struct.std::__uniq_ptr_data.98" = type { %"class.std::__uniq_ptr_impl.99" }
%"class.std::__uniq_ptr_impl.99" = type { %"class.std::tuple.100" }
%"class.std::tuple.100" = type { %"struct.std::_Tuple_impl.101" }
%"struct.std::_Tuple_impl.101" = type { %"struct.std::_Head_base.104" }
%"struct.std::_Head_base.104" = type { ptr }
%"class.std::unique_ptr.105" = type { %"struct.std::__uniq_ptr_data.106" }
%"struct.std::__uniq_ptr_data.106" = type { %"class.std::__uniq_ptr_impl.107" }
%"class.std::__uniq_ptr_impl.107" = type { %"class.std::tuple.108" }
%"class.std::tuple.108" = type { %"struct.std::_Tuple_impl.109" }
%"struct.std::_Tuple_impl.109" = type { %"struct.std::_Head_base.112" }
%"struct.std::_Head_base.112" = type { ptr }
%"class.std::unique_ptr.113" = type { %"struct.std::__uniq_ptr_data.114" }
%"struct.std::__uniq_ptr_data.114" = type { %"class.std::__uniq_ptr_impl.115" }
%"class.std::__uniq_ptr_impl.115" = type { %"class.std::tuple.116" }
%"class.std::tuple.116" = type { %"struct.std::_Tuple_impl.117" }
%"struct.std::_Tuple_impl.117" = type { %"struct.std::_Head_base.120" }
%"struct.std::_Head_base.120" = type { ptr }
%"class.std::unique_ptr.121" = type { %"struct.std::__uniq_ptr_data.122" }
%"struct.std::__uniq_ptr_data.122" = type { %"class.std::__uniq_ptr_impl.123" }
%"class.std::__uniq_ptr_impl.123" = type { %"class.std::tuple.124" }
%"class.std::tuple.124" = type { %"struct.std::_Tuple_impl.125" }
%"struct.std::_Tuple_impl.125" = type { %"struct.std::_Head_base.128" }
%"struct.std::_Head_base.128" = type { ptr }
%"class.std::unique_ptr.129" = type { %"struct.std::__uniq_ptr_data.130" }
%"struct.std::__uniq_ptr_data.130" = type { %"class.std::__uniq_ptr_impl.131" }
%"class.std::__uniq_ptr_impl.131" = type { %"class.std::tuple.132" }
%"class.std::tuple.132" = type { %"struct.std::_Tuple_impl.133" }
%"struct.std::_Tuple_impl.133" = type { %"struct.std::_Head_base.136" }
%"struct.std::_Head_base.136" = type { ptr }
%"class.std::unique_ptr.137" = type { %"struct.std::__uniq_ptr_data.138" }
%"struct.std::__uniq_ptr_data.138" = type { %"class.std::__uniq_ptr_impl.139" }
%"class.std::__uniq_ptr_impl.139" = type { %"class.std::tuple.140" }
%"class.std::tuple.140" = type { %"struct.std::_Tuple_impl.141" }
%"struct.std::_Tuple_impl.141" = type { %"struct.std::_Head_base.144" }
%"struct.std::_Head_base.144" = type { ptr }
%"class.std::unique_ptr.145" = type { %"struct.std::__uniq_ptr_data.146" }
%"struct.std::__uniq_ptr_data.146" = type { %"class.std::__uniq_ptr_impl.147" }
%"class.std::__uniq_ptr_impl.147" = type { %"class.std::tuple.148" }
%"class.std::tuple.148" = type { %"struct.std::_Tuple_impl.149" }
%"struct.std::_Tuple_impl.149" = type { %"struct.std::_Head_base.152" }
%"struct.std::_Head_base.152" = type { ptr }
%"class.std::unique_ptr.153" = type { %"struct.std::__uniq_ptr_data.154" }
%"struct.std::__uniq_ptr_data.154" = type { %"class.std::__uniq_ptr_impl.155" }
%"class.std::__uniq_ptr_impl.155" = type { %"class.std::tuple.156" }
%"class.std::tuple.156" = type { %"struct.std::_Tuple_impl.157" }
%"struct.std::_Tuple_impl.157" = type { %"struct.std::_Head_base.160" }
%"struct.std::_Head_base.160" = type { ptr }
%"class.std::unique_ptr.161" = type { %"struct.std::__uniq_ptr_data.162" }
%"struct.std::__uniq_ptr_data.162" = type { %"class.std::__uniq_ptr_impl.163" }
%"class.std::__uniq_ptr_impl.163" = type { %"class.std::tuple.164" }
%"class.std::tuple.164" = type { %"struct.std::_Tuple_impl.165" }
%"struct.std::_Tuple_impl.165" = type { %"struct.std::_Head_base.168" }
%"struct.std::_Head_base.168" = type { ptr }
%"class.std::unique_ptr.169" = type { %"struct.std::__uniq_ptr_data.170" }
%"struct.std::__uniq_ptr_data.170" = type { %"class.std::__uniq_ptr_impl.171" }
%"class.std::__uniq_ptr_impl.171" = type { %"class.std::tuple.172" }
%"class.std::tuple.172" = type { %"struct.std::_Tuple_impl.173" }
%"struct.std::_Tuple_impl.173" = type { %"struct.std::_Head_base.176" }
%"struct.std::_Head_base.176" = type { ptr }
%"class.std::unique_ptr.177" = type { %"struct.std::__uniq_ptr_data.178" }
%"struct.std::__uniq_ptr_data.178" = type { %"class.std::__uniq_ptr_impl.179" }
%"class.std::__uniq_ptr_impl.179" = type { %"class.std::tuple.180" }
%"class.std::tuple.180" = type { %"struct.std::_Tuple_impl.181" }
%"struct.std::_Tuple_impl.181" = type { %"struct.std::_Head_base.184" }
%"struct.std::_Head_base.184" = type { ptr }
%"class.std::unique_ptr.185" = type { %"struct.std::__uniq_ptr_data.186" }
%"struct.std::__uniq_ptr_data.186" = type { %"class.std::__uniq_ptr_impl.187" }
%"class.std::__uniq_ptr_impl.187" = type { %"class.std::tuple.188" }
%"class.std::tuple.188" = type { %"struct.std::_Tuple_impl.189" }
%"struct.std::_Tuple_impl.189" = type { %"struct.std::_Head_base.192" }
%"struct.std::_Head_base.192" = type { ptr }
%"class.std::unique_ptr.193" = type { %"struct.std::__uniq_ptr_data.194" }
%"struct.std::__uniq_ptr_data.194" = type { %"class.std::__uniq_ptr_impl.195" }
%"class.std::__uniq_ptr_impl.195" = type { %"class.std::tuple.196" }
%"class.std::tuple.196" = type { %"struct.std::_Tuple_impl.197" }
%"struct.std::_Tuple_impl.197" = type { %"struct.std::_Head_base.200" }
%"struct.std::_Head_base.200" = type { ptr }
%"class.std::unique_ptr.201" = type { %"struct.std::__uniq_ptr_data.202" }
%"struct.std::__uniq_ptr_data.202" = type { %"class.std::__uniq_ptr_impl.203" }
%"class.std::__uniq_ptr_impl.203" = type { %"class.std::tuple.204" }
%"class.std::tuple.204" = type { %"struct.std::_Tuple_impl.205" }
%"struct.std::_Tuple_impl.205" = type { %"struct.std::_Head_base.208" }
%"struct.std::_Head_base.208" = type { ptr }
%"class.std::unique_ptr.209" = type { %"struct.std::__uniq_ptr_data.210" }
%"struct.std::__uniq_ptr_data.210" = type { %"class.std::__uniq_ptr_impl.211" }
%"class.std::__uniq_ptr_impl.211" = type { %"class.std::tuple.212" }
%"class.std::tuple.212" = type { %"struct.std::_Tuple_impl.213" }
%"struct.std::_Tuple_impl.213" = type { %"struct.std::_Head_base.216" }
%"struct.std::_Head_base.216" = type { ptr }
%"class.std::unique_ptr.217" = type { %"struct.std::__uniq_ptr_data.218" }
%"struct.std::__uniq_ptr_data.218" = type { %"class.std::__uniq_ptr_impl.219" }
%"class.std::__uniq_ptr_impl.219" = type { %"class.std::tuple.220" }
%"class.std::tuple.220" = type { %"struct.std::_Tuple_impl.221" }
%"struct.std::_Tuple_impl.221" = type { %"struct.std::_Head_base.224" }
%"struct.std::_Head_base.224" = type { ptr }
%"class.std::unique_ptr.225" = type { %"struct.std::__uniq_ptr_data.226" }
%"struct.std::__uniq_ptr_data.226" = type { %"class.std::__uniq_ptr_impl.227" }
%"class.std::__uniq_ptr_impl.227" = type { %"class.std::tuple.228" }
%"class.std::tuple.228" = type { %"struct.std::_Tuple_impl.229" }
%"struct.std::_Tuple_impl.229" = type { %"struct.std::_Head_base.232" }
%"struct.std::_Head_base.232" = type { ptr }
%"class.std::unique_ptr.233" = type { %"struct.std::__uniq_ptr_data.234" }
%"struct.std::__uniq_ptr_data.234" = type { %"class.std::__uniq_ptr_impl.235" }
%"class.std::__uniq_ptr_impl.235" = type { %"class.std::tuple.236" }
%"class.std::tuple.236" = type { %"struct.std::_Tuple_impl.237" }
%"struct.std::_Tuple_impl.237" = type { %"struct.std::_Head_base.240" }
%"struct.std::_Head_base.240" = type { ptr }
%"class.std::unique_ptr.241" = type { %"struct.std::__uniq_ptr_data.242" }
%"struct.std::__uniq_ptr_data.242" = type { %"class.std::__uniq_ptr_impl.243" }
%"class.std::__uniq_ptr_impl.243" = type { %"class.std::tuple.244" }
%"class.std::tuple.244" = type { %"struct.std::_Tuple_impl.245" }
%"struct.std::_Tuple_impl.245" = type { %"struct.std::_Head_base.248" }
%"struct.std::_Head_base.248" = type { ptr }
%"class.std::unique_ptr.249" = type { %"struct.std::__uniq_ptr_data.250" }
%"struct.std::__uniq_ptr_data.250" = type { %"class.std::__uniq_ptr_impl.251" }
%"class.std::__uniq_ptr_impl.251" = type { %"class.std::tuple.252" }
%"class.std::tuple.252" = type { %"struct.std::_Tuple_impl.253" }
%"struct.std::_Tuple_impl.253" = type { %"struct.std::_Head_base.256" }
%"struct.std::_Head_base.256" = type { ptr }
%"class.std::unique_ptr.257" = type { %"struct.std::__uniq_ptr_data.258" }
%"struct.std::__uniq_ptr_data.258" = type { %"class.std::__uniq_ptr_impl.259" }
%"class.std::__uniq_ptr_impl.259" = type { %"class.std::tuple.260" }
%"class.std::tuple.260" = type { %"struct.std::_Tuple_impl.261" }
%"struct.std::_Tuple_impl.261" = type { %"struct.std::_Head_base.264" }
%"struct.std::_Head_base.264" = type { ptr }
%"struct.cvc5::internal::options::HolderPARALLEL" = type <{ i8, i8, [6 x i8], i64, i8, [7 x i8], i64, i8, [7 x i8], i64, i8, [3 x i8], i32, i8, [7 x i8], i64, i8, [7 x i8], i64, i8, [3 x i8], i32, i8, [7 x i8], double, i8, [7 x i8], i64, i8, [3 x i8], i32, i8, i8, i8, [5 x i8], %"class.cvc5::internal::ManagedOut", i8, [7 x i8] }>
%"class.cvc5::internal::ManagedOut" = type { %"class.cvc5::internal::ManagedStream" }
%"class.cvc5::internal::ManagedStream" = type { ptr, ptr, %"class.std::shared_ptr", %"class.std::__cxx11::basic_string" }
%"class.std::shared_ptr" = type { %"class.std::__shared_ptr" }
%"class.std::__shared_ptr" = type { ptr, %"class.std::__shared_count" }
%"class.std::__shared_count" = type { ptr }
%"class.cvc5::internal::NodeTemplate.278" = type { ptr }

; Function Attrs: mustprogress nounwind uwtable
define linkonce_odr hidden void @_ZNK4cvc58internal12NodeTemplateILb0EE21assertTNodeNotExpiredEv(ptr noundef nonnull align 8 dereferenceable(8) %this) #4 comdat align 2 {
entry:
  %this.addr = alloca ptr, align 8
  store ptr %this, ptr %this.addr, align 8
  ret void
}

; Function Attrs: mustprogress nounwind uwtable
define linkonce_odr hidden noundef ptr @_ZNKSt12__shared_ptrISoLN9__gnu_cxx12_Lock_policyE2EE3getEv(ptr noundef nonnull align 8 dereferenceable(16) %this) #4 comdat align 2 {
entry:
  %this.addr = alloca ptr, align 8
  store ptr %this, ptr %this.addr, align 8
  %this1 = load ptr, ptr %this.addr, align 8
  %_M_ptr = getelementptr inbounds %"class.std::__shared_ptr", ptr %this1, i32 0, i32 0
  %0 = load ptr, ptr %_M_ptr, align 8
  ret ptr %0
}

; Function Attrs: mustprogress uwtable
define linkonce_odr hidden void @_ZNK4cvc58internal12NodeTemplateILb0EE8toStreamERSo(ptr noundef nonnull align 8 dereferenceable(8) %this, ptr noundef nonnull align 8 dereferenceable(8) %out) #5 comdat align 2 {
entry:
  %this.addr = alloca ptr, align 8
  %out.addr = alloca ptr, align 8
  store ptr %this, ptr %this.addr, align 8
  store ptr %out, ptr %out.addr, align 8
  %this1 = load ptr, ptr %this.addr, align 8
  call void @_ZNK4cvc58internal12NodeTemplateILb0EE21assertTNodeNotExpiredEv(ptr noundef nonnull align 8 dereferenceable(8) %this1)
  %d_nv = getelementptr inbounds %"class.cvc5::internal::NodeTemplate.278", ptr %this1, i32 0, i32 0
  %0 = load ptr, ptr %d_nv, align 8
  %1 = load ptr, ptr %out.addr, align 8
  call void @_ZNK4cvc58internal4expr9NodeValue8toStreamERSo(ptr noundef nonnull align 8 dereferenceable(16) %0, ptr noundef nonnull align 8 dereferenceable(8) %1)
  ret void
}

; Function Attrs: mustprogress nounwind uwtable
define linkonce_odr hidden noundef ptr @_ZNK4cvc58internal13ManagedStreamISoE6getPtrEv(ptr noundef nonnull align 8 dereferenceable(64) %this) #4 comdat align 2 {
entry:
  %retval = alloca ptr, align 8
  %this.addr = alloca ptr, align 8
  store ptr %this, ptr %this.addr, align 8
  %this1 = load ptr, ptr %this.addr, align 8
  %d_nonowned = getelementptr inbounds %"class.cvc5::internal::ManagedStream", ptr %this1, i32 0, i32 1
  %0 = load ptr, ptr %d_nonowned, align 8
  %cmp = icmp ne ptr %0, null
  br i1 %cmp, label %if.then, label %if.end

if.then:                                          ; preds = %entry
  %d_nonowned2 = getelementptr inbounds %"class.cvc5::internal::ManagedStream", ptr %this1, i32 0, i32 1
  %1 = load ptr, ptr %d_nonowned2, align 8
  store ptr %1, ptr %retval, align 8
  br label %return

if.end:                                           ; preds = %entry
  %d_owned = getelementptr inbounds %"class.cvc5::internal::ManagedStream", ptr %this1, i32 0, i32 2
  %call = call noundef ptr @_ZNKSt12__shared_ptrISoLN9__gnu_cxx12_Lock_policyE2EE3getEv(ptr noundef nonnull align 8 dereferenceable(16) %d_owned) #3
  store ptr %call, ptr %retval, align 8
  br label %return

return:                                           ; preds = %if.end, %if.then
  %2 = load ptr, ptr %retval, align 8
  ret ptr %2
}

; Function Attrs: mustprogress nounwind uwtable
define linkonce_odr hidden void @_ZN4cvc58internal12NodeTemplateILb0EED2Ev(ptr noundef nonnull align 8 dereferenceable(8) %this) unnamed_addr #4 comdat align 2 {
entry:
  %this.addr = alloca ptr, align 8
  store ptr %this, ptr %this.addr, align 8
  ret void
}

; Function Attrs: mustprogress uwtable
define linkonce_odr hidden noundef nonnull align 8 dereferenceable(8) ptr @_ZN4cvc58internallsERSoNS0_12NodeTemplateILb0EEE(ptr noundef nonnull align 8 dereferenceable(8) %out, ptr noundef %n) #5 comdat {
entry:
  %out.addr = alloca ptr, align 8
  %n.indirect_addr = alloca ptr, align 8
  store ptr %out, ptr %out.addr, align 8
  store ptr %n, ptr %n.indirect_addr, align 8
  %0 = load ptr, ptr %out.addr, align 8
  call void @_ZNK4cvc58internal12NodeTemplateILb0EE8toStreamERSo(ptr noundef nonnull align 8 dereferenceable(8) %n, ptr noundef nonnull align 8 dereferenceable(8) %0)
  %1 = load ptr, ptr %out.addr, align 8
  ret ptr %1
}

; Function Attrs: mustprogress nounwind uwtable
define linkonce_odr hidden void @_ZN4cvc58internal12NodeTemplateILb0EEC2ERKNS1_ILb1EEE(ptr noundef nonnull align 8 dereferenceable(8) %this, ptr noundef nonnull align 8 dereferenceable(8) %e) unnamed_addr #4 comdat align 2 {
entry:
  %this.addr = alloca ptr, align 8
  %e.addr = alloca ptr, align 8
  store ptr %this, ptr %this.addr, align 8
  store ptr %e, ptr %e.addr, align 8
  %this1 = load ptr, ptr %this.addr, align 8
  %0 = load ptr, ptr %e.addr, align 8
  %d_nv = getelementptr inbounds %"class.cvc5::internal::NodeTemplate", ptr %0, i32 0, i32 0
  %1 = load ptr, ptr %d_nv, align 8
  %d_nv2 = getelementptr inbounds %"class.cvc5::internal::NodeTemplate.278", ptr %this1, i32 0, i32 0
  store ptr %1, ptr %d_nv2, align 8
  ret void
}

; Function Attrs: mustprogress uwtable
define linkonce_odr hidden noundef nonnull align 8 dereferenceable(8) ptr @_ZNK4cvc58internal13ManagedStreamISoEdeEv(ptr noundef nonnull align 8 dereferenceable(64) %this) #5 comdat align 2 {
entry:
  %this.addr = alloca ptr, align 8
  store ptr %this, ptr %this.addr, align 8
  %this1 = load ptr, ptr %this.addr, align 8
  %call = call noundef ptr @_ZNK4cvc58internal13ManagedStreamISoE6getPtrEv(ptr noundef nonnull align 8 dereferenceable(64) %this1)
  ret ptr %call
}

; Function Attrs: mustprogress uwtable
define hidden void @_ZN4cvc58internal6theory18PartitionGenerator13emitPartitionENS0_12NodeTemplateILb1EEE(ptr noundef nonnull align 8 dereferenceable(456) %this, ptr noundef %toEmit) #5 align 2 personality ptr @__gxx_personality_v0 {
entry:
  %this.addr = alloca ptr, align 8
  %toEmit.indirect_addr = alloca ptr, align 8
  %agg.tmp = alloca %"class.cvc5::internal::NodeTemplate.278", align 8
  %exn.slot = alloca ptr, align 8
  %ehselector.slot = alloca i32, align 4
  store ptr %this, ptr %this.addr, align 8
  store ptr %toEmit, ptr %toEmit.indirect_addr, align 8
  %this1 = load ptr, ptr %this.addr, align 8
  %call = call noundef nonnull align 8 dereferenceable(392) ptr @_ZNK4cvc58internal6EnvObj7optionsEv(ptr noundef nonnull align 8 dereferenceable(16) %this1)
  %parallel = getelementptr inbounds %"class.cvc5::internal::Options", ptr %call, i32 0, i32 36
  %0 = load ptr, ptr %parallel, align 8
  %partitionsOut = getelementptr inbounds %"struct.cvc5::internal::options::HolderPARALLEL", ptr %0, i32 0, i32 35
  %call2 = call noundef nonnull align 8 dereferenceable(8) ptr @_ZNK4cvc58internal13ManagedStreamISoEdeEv(ptr noundef nonnull align 8 dereferenceable(64) %partitionsOut)
  call void @_ZN4cvc58internal12NodeTemplateILb0EEC2ERKNS1_ILb1EEE(ptr noundef nonnull align 8 dereferenceable(8) %agg.tmp, ptr noundef nonnull align 8 dereferenceable(8) %toEmit)
  %call3 = invoke noundef nonnull align 8 dereferenceable(8) ptr @_ZN4cvc58internallsERSoNS0_12NodeTemplateILb0EEE(ptr noundef nonnull align 8 dereferenceable(8) %call2, ptr noundef %agg.tmp)
          to label %invoke.cont unwind label %lpad

invoke.cont:                                      ; preds = %entry
  %call5 = invoke noundef nonnull align 8 dereferenceable(8) ptr @_ZNSolsEPFRSoS_E(ptr noundef nonnull align 8 dereferenceable(8) %call3, ptr noundef @_ZSt4endlIcSt11char_traitsIcEERSt13basic_ostreamIT_T0_ES6_)
          to label %invoke.cont4 unwind label %lpad

invoke.cont4:                                     ; preds = %invoke.cont
  call void @_ZN4cvc58internal12NodeTemplateILb0EED2Ev(ptr noundef nonnull align 8 dereferenceable(8) %agg.tmp) #3
  %d_numPartitionsSoFar = getelementptr inbounds %"class.cvc5::internal::theory::PartitionGenerator", ptr %this1, i32 0, i32 8
  %1 = load i64, ptr %d_numPartitionsSoFar, align 8
  %inc = add i64 %1, 1
  store i64 %inc, ptr %d_numPartitionsSoFar, align 8
  %d_createdAnyPartitions = getelementptr inbounds %"class.cvc5::internal::theory::PartitionGenerator", ptr %this1, i32 0, i32 13
  store i8 1, ptr %d_createdAnyPartitions, align 8
  ret void

lpad:                                             ; preds = %invoke.cont, %entry
  %2 = landingpad { ptr, i32 }
          cleanup
  %3 = extractvalue { ptr, i32 } %2, 0
  store ptr %3, ptr %exn.slot, align 8
  %4 = extractvalue { ptr, i32 } %2, 1
  store i32 %4, ptr %ehselector.slot, align 4
  call void @_ZN4cvc58internal12NodeTemplateILb0EED2Ev(ptr noundef nonnull align 8 dereferenceable(8) %agg.tmp) #3
  br label %eh.resume

eh.resume:                                        ; preds = %lpad
  %exn = load ptr, ptr %exn.slot, align 8
  %sel = load i32, ptr %ehselector.slot, align 4
  %lpad.val = insertvalue { ptr, i32 } poison, ptr %exn, 0
  %lpad.val6 = insertvalue { ptr, i32 } %lpad.val, i32 %sel, 1
  resume { ptr, i32 } %lpad.val6
}