; Function Attrs: mustprogress uwtable
define hidden void @_ZN4cvc58internal6theory18PartitionGenerator13emitPartitionENS0_12NodeTemplateILb1EEE(ptr noundef nonnull align 8 dereferenceable(456) %this, ptr nocapture noundef readonly %toEmit) local_unnamed_addr #3 align 2 personality ptr @__gxx_personality_v0 {
entry:
  %call = tail call noundef nonnull align 8 dereferenceable(392) ptr @_ZNK4cvc58internal6EnvObj7optionsEv(ptr noundef nonnull align 8 dereferenceable(16) %this)
  %parallel = getelementptr inbounds i8, ptr %call, i64 288
  %0 = load ptr, ptr %parallel, align 8
  %d_nonowned.i.i = getelementptr inbounds i8, ptr %0, i64 152
  %1 = load ptr, ptr %d_nonowned.i.i, align 8
  %cmp.not.i.i = icmp eq ptr %1, null
  %d_owned.i.i = getelementptr inbounds i8, ptr %0, i64 160
  %2 = load ptr, ptr %d_owned.i.i, align 8
  %retval.0.i.i = select i1 %cmp.not.i.i, ptr %2, ptr %1
  %3 = load ptr, ptr %toEmit, align 8
  tail call void @_ZNK4cvc58internal4expr9NodeValue8toStreamERSo(ptr noundef nonnull align 8 dereferenceable(16) %3, ptr noundef nonnull align 8 dereferenceable(8) %retval.0.i.i)
  %call5 = tail call noundef nonnull align 8 dereferenceable(8) ptr @_ZNSolsEPFRSoS_E(ptr noundef nonnull align 8 dereferenceable(8) %retval.0.i.i, ptr noundef nonnull @_ZSt4endlIcSt11char_traitsIcEERSt13basic_ostreamIT_T0_ES6_)
  %d_numPartitionsSoFar = getelementptr inbounds i8, ptr %this, i64 208
  %4 = load i64, ptr %d_numPartitionsSoFar, align 8
  %inc = add i64 %4, 1
  store i64 %inc, ptr %d_numPartitionsSoFar, align 8
  %d_createdAnyPartitions = getelementptr inbounds i8, ptr %this, i64 296
  store i8 1, ptr %d_createdAnyPartitions, align 8
  ret void
}